target datalayout = "e-m:e-p270:32:32-p271:32:32-p272:64:64-i64:64-i128:128-f80:128-n8:16:32:64-S128"
target triple = "x86_64-pc-linux-gnu"

%struct.mi_stats_s = type { %struct.mi_stat_count_s, %struct.mi_stat_count_s, %struct.mi_stat_count_s, %struct.mi_stat_count_s, %struct.mi_stat_count_s, %struct.mi_stat_count_s, %struct.mi_stat_count_s, %struct.mi_stat_count_s, %struct.mi_stat_count_s, %struct.mi_stat_count_s, %struct.mi_stat_count_s, %struct.mi_stat_count_s, %struct.mi_stat_count_s, %struct.mi_stat_count_s, %struct.mi_stat_count_s, %struct.mi_stat_counter_s, %struct.mi_stat_counter_s, %struct.mi_stat_counter_s, %struct.mi_stat_counter_s, %struct.mi_stat_counter_s, %struct.mi_stat_counter_s, %struct.mi_stat_counter_s, %struct.mi_stat_counter_s, %struct.mi_stat_counter_s, %struct.mi_stat_counter_s, %struct.mi_stat_counter_s, %struct.mi_stat_counter_s, %struct.mi_stat_counter_s }
%struct.mi_stat_count_s = type { i64, i64, i64, i64 }
%struct.mi_stat_counter_s = type { i64, i64 }

@_mi_stats_main = external global %struct.mi_stats_s, align 64

; Function Attrs: inlinehint nounwind uwtable
define internal i64 @mi_atomic_addi64_relaxed(ptr noundef %0, i64 noundef %1) #1 {
  %3 = alloca ptr, align 8
  %4 = alloca i64, align 8
  %5 = alloca i64, align 8
  %6 = alloca i64, align 8
  store ptr %0, ptr %3, align 8, !tbaa !14
  store i64 %1, ptr %4, align 8, !tbaa !8
  %7 = load ptr, ptr %3, align 8, !tbaa !14
  %8 = load i64, ptr %4, align 8, !tbaa !8
  store i64 %8, ptr %5, align 8, !tbaa !8
  %9 = load i64, ptr %5, align 8
  %10 = atomicrmw add ptr %7, i64 %9 monotonic, align 8
  store i64 %10, ptr %6, align 8
  %11 = load i64, ptr %6, align 8, !tbaa !8
  ret i64 %11
}

; Function Attrs: nounwind uwtable
define internal zeroext i1 @mi_is_in_main(ptr noundef %0) #0 {
  %2 = alloca ptr, align 8
  store ptr %0, ptr %2, align 8, !tbaa !13
  %3 = load ptr, ptr %2, align 8, !tbaa !13
  %4 = icmp uge ptr %3, @_mi_stats_main
  br i1 %4, label %5, label %8

5:                                                ; preds = %1
  %6 = load ptr, ptr %2, align 8, !tbaa !13
  %7 = icmp ult ptr %6, getelementptr inbounds nuw (i8, ptr @_mi_stats_main, i64 688)
  br label %8

8:                                                ; preds = %5, %1
  %9 = phi i1 [ false, %1 ], [ %7, %5 ]
  ret i1 %9
}

; Function Attrs: nounwind uwtable
define hidden void @_mi_stat_counter_increase(ptr noundef %0, i64 noundef %1) #0 {
  %3 = alloca ptr, align 8
  %4 = alloca i64, align 8
  store ptr %0, ptr %3, align 8, !tbaa !3
  store i64 %1, ptr %4, align 8, !tbaa !8
  %5 = load ptr, ptr %3, align 8, !tbaa !3
  %6 = call zeroext i1 @mi_is_in_main(ptr noundef %5) #6
  br i1 %6, label %7, label %15

7:                                                ; preds = %2
  %8 = load ptr, ptr %3, align 8, !tbaa !3
  %9 = getelementptr inbounds nuw %struct.mi_stat_counter_s, ptr %8, i32 0, i32 1
  %10 = call i64 @mi_atomic_addi64_relaxed(ptr noundef %9, i64 noundef 1) #6
  %11 = load ptr, ptr %3, align 8, !tbaa !3
  %12 = getelementptr inbounds nuw %struct.mi_stat_counter_s, ptr %11, i32 0, i32 0
  %13 = load i64, ptr %4, align 8, !tbaa !8
  %14 = call i64 @mi_atomic_addi64_relaxed(ptr noundef %12, i64 noundef %13) #6
  br label %25

15:                                               ; preds = %2
  %16 = load ptr, ptr %3, align 8, !tbaa !3
  %17 = getelementptr inbounds nuw %struct.mi_stat_counter_s, ptr %16, i32 0, i32 1
  %18 = load i64, ptr %17, align 8, !tbaa !10
  %19 = add nsw i64 %18, 1
  store i64 %19, ptr %17, align 8, !tbaa !10
  %20 = load i64, ptr %4, align 8, !tbaa !8
  %21 = load ptr, ptr %3, align 8, !tbaa !3
  %22 = getelementptr inbounds nuw %struct.mi_stat_counter_s, ptr %21, i32 0, i32 0
  %23 = load i64, ptr %22, align 8, !tbaa !12
  %24 = add i64 %23, %20
  store i64 %24, ptr %22, align 8, !tbaa !12
  br label %25

25:                                               ; preds = %15, %7
  ret void
}